; Function Attrs: uwtable
define internal void @__cxx_global_var_init.5() #5 section ".text.startup" comdat($_ZN8coro_rpc15coro_rpc_client13connect_errorE) personality ptr @__gxx_personality_v0 {
entry:
  %ref.tmp = alloca %"class.std::allocator", align 1
  %0 = load atomic i8, ptr @_ZGVN8coro_rpc15coro_rpc_client13connect_errorE acquire, align 8
  %guard.uninitialized = icmp eq i8 %0, 0
  br i1 %guard.uninitialized, label %init.check, label %init.end

init.check:                                       ; preds = %entry
  %1 = tail call i32 @__cxa_guard_acquire(ptr nonnull @_ZGVN8coro_rpc15coro_rpc_client13connect_errorE) #30
  %tobool.not = icmp eq i32 %1, 0
  br i1 %tobool.not, label %init.end, label %init

init:                                             ; preds = %init.check
  store i32 5, ptr @_ZN8coro_rpc15coro_rpc_client13connect_errorE, align 8
  call void @_ZNSaIcEC1Ev(ptr noundef nonnull align 1 dereferenceable(1) %ref.tmp) #30
  invoke void @_ZNSt7__cxx1112basic_stringIcSt11char_traitsIcESaIcEEC2IS3_EEPKcRKS3_(ptr noundef nonnull align 8 dereferenceable(32) getelementptr inbounds (%"struct.coro_rpc::protocol::coro_rpc_protocol::rpc_error", ptr @_ZN8coro_rpc15coro_rpc_client13connect_errorE, i64 0, i32 1), ptr noundef nonnull @.str, ptr noundef nonnull align 1 dereferenceable(1) %ref.tmp)
          to label %invoke.cont unwind label %lpad

invoke.cont:                                      ; preds = %init
  call void @_ZNSaIcED1Ev(ptr noundef nonnull align 1 dereferenceable(1) %ref.tmp) #30
  %2 = call i32 @__cxa_atexit(ptr nonnull @_ZN8coro_rpc8protocol17coro_rpc_protocol9rpc_errorD2Ev, ptr nonnull @_ZN8coro_rpc15coro_rpc_client13connect_errorE, ptr nonnull @__dso_handle) #30
  call void @__cxa_guard_release(ptr nonnull @_ZGVN8coro_rpc15coro_rpc_client13connect_errorE) #30
  br label %init.end

init.end:                                         ; preds = %invoke.cont, %init.check, %entry
  ret void

lpad:                                             ; preds = %init
  %3 = landingpad { ptr, i32 }
          cleanup
  call void @_ZNSaIcED1Ev(ptr noundef nonnull align 1 dereferenceable(1) %ref.tmp) #30
  call void @__cxa_guard_abort(ptr nonnull @_ZGVN8coro_rpc15coro_rpc_client13connect_errorE) #30
  resume { ptr, i32 } %3
}